target datalayout = "e-m:e-p270:32:32-p271:32:32-p272:64:64-i64:64-i128:128-f80:128-n8:16:32:64-S128"
target triple = "x86_64-pc-linux-gnu"

%struct.darktable_t = type { %struct.dt_codepath_t, i32, i32, ptr, ptr, ptr, ptr, ptr, ptr, ptr, ptr, ptr, ptr, ptr, ptr, ptr, ptr, ptr, ptr, ptr, ptr, ptr, ptr, ptr, ptr, ptr, ptr, ptr, ptr, ptr, [64 x %struct.dt_pthread_mutex_t], %struct.dt_pthread_mutex_t, %struct.dt_pthread_mutex_t, %struct.dt_pthread_mutex_t, %struct.dt_pthread_mutex_t, %struct.dt_pthread_mutex_t, ptr, ptr, ptr, ptr, ptr, ptr, ptr, ptr, ptr, ptr, ptr, ptr, ptr, %struct.dt_lua_state_t, ptr, double, ptr, i32, [47 x i32], i32, i32, ptr, ptr, %struct.dt_sys_resources_t, %struct.dt_backthumb_t, %struct.dt_gimp_t }
%struct.dt_codepath_t = type { i8, [3 x i8] }
%struct.dt_pthread_mutex_t = type { %union.pthread_mutex_t }
%union.pthread_mutex_t = type { %struct.__pthread_mutex_s }
%struct.__pthread_mutex_s = type { i32, i32, i32, i32, i32, i16, i16, %struct.__pthread_internal_list }
%struct.__pthread_internal_list = type { ptr, ptr }
%struct.dt_lua_state_t = type { i32 }
%struct.dt_sys_resources_t = type { i64, i64, ptr, ptr, i32 }
%struct.dt_backthumb_t = type { double, double, i32, i32, i32, i32 }
%struct.dt_gimp_t = type { i32, ptr, ptr, i32, i32 }

@_ZL4meta = internal global ptr null, align 8
@darktable = external global %struct.darktable_t, align 8
@.str.13 = private unnamed_addr constant [24 x i8] c"%s/rawspeed/cameras.xml\00", align 1

; Function Attrs: inlinehint mustprogress nounwind uwtable
define internal noundef i32 @_ZL23dt_pthread_mutex_unlockP18dt_pthread_mutex_t(ptr noundef %0) #9 {
  %2 = alloca ptr, align 8
  store ptr %0, ptr %2, align 8, !tbaa !242
  %3 = load ptr, ptr %2, align 8, !tbaa !242
  %4 = getelementptr inbounds nuw %struct.dt_pthread_mutex_t, ptr %3, i32 0, i32 0
  %5 = call i32 @pthread_mutex_unlock(ptr noundef %4) #27
  ret i32 %5
}

; Function Attrs: inlinehint mustprogress nounwind uwtable
define internal noundef i32 @_ZL21dt_pthread_mutex_lockP18dt_pthread_mutex_t(ptr noundef %0) #9 {
  %2 = alloca ptr, align 8
  store ptr %0, ptr %2, align 8, !tbaa !242
  %3 = load ptr, ptr %2, align 8, !tbaa !242
  %4 = getelementptr inbounds nuw %struct.dt_pthread_mutex_t, ptr %3, i32 0, i32 0
  %5 = call i32 @pthread_mutex_lock(ptr noundef %4) #27
  ret i32 %5
}

; Function Attrs: mustprogress uwtable
define internal void @_ZL21dt_rawspeed_load_metav() #1 personality ptr @__gxx_personality_v0 {
  %1 = alloca [4096 x i8], align 16
  %2 = alloca [4096 x i8], align 16
  %3 = alloca ptr, align 8
  %4 = alloca i32, align 4
  %5 = load ptr, ptr @_ZL4meta, align 8, !tbaa !13
  %6 = icmp eq ptr %5, null
  br i1 %6, label %7, label %25

7:                                                ; preds = %0
  %8 = call noundef i32 @_ZL21dt_pthread_mutex_lockP18dt_pthread_mutex_t(ptr noundef getelementptr inbounds nuw (%struct.darktable_t, ptr @darktable, i32 0, i32 32))
  %9 = load ptr, ptr @_ZL4meta, align 8, !tbaa !13
  %10 = icmp eq ptr %9, null
  br i1 %10, label %11, label %23

11:                                               ; preds = %7
  call void @llvm.lifetime.start.p0(i64 4096, ptr %1) #27
  call void @llvm.memset.p0.i64(ptr align 16 %1, i8 0, i64 4096, i1 false)
  call void @llvm.lifetime.start.p0(i64 4096, ptr %2) #27
  call void @llvm.memset.p0.i64(ptr align 16 %2, i8 0, i64 4096, i1 false)
  %12 = getelementptr inbounds [4096 x i8], ptr %1, i64 0, i64 0
  call void @dt_loc_get_datadir(ptr noundef %12, i64 noundef 4096)
  %13 = getelementptr inbounds [4096 x i8], ptr %2, i64 0, i64 0
  %14 = getelementptr inbounds [4096 x i8], ptr %1, i64 0, i64 0
  %15 = call i32 (ptr, i64, ptr, ...) @snprintf(ptr noundef %13, i64 noundef 4096, ptr noundef @.str.13, ptr noundef %14) #27
  %16 = call noalias noundef nonnull ptr @_Znwm(i64 noundef 96) #29
  %17 = getelementptr inbounds [4096 x i8], ptr %2, i64 0, i64 0
  invoke void @_ZN8rawspeed14CameraMetaDataC1EPKc(ptr noundef nonnull align 8 dereferenceable(96) %16, ptr noundef %17)
          to label %18 unwind label %19

18:                                               ; preds = %11
  store ptr %16, ptr @_ZL4meta, align 8, !tbaa !13
  call void @llvm.lifetime.end.p0(i64 4096, ptr %2) #27
  call void @llvm.lifetime.end.p0(i64 4096, ptr %1) #27
  br label %23

19:                                               ; preds = %11
  %20 = landingpad { ptr, i32 }
          cleanup
  %21 = extractvalue { ptr, i32 } %20, 0
  store ptr %21, ptr %3, align 8
  %22 = extractvalue { ptr, i32 } %20, 1
  store i32 %22, ptr %4, align 4
  call void @_ZdlPvm(ptr noundef %16, i64 noundef 96) #30
  call void @llvm.lifetime.end.p0(i64 4096, ptr %2) #27
  call void @llvm.lifetime.end.p0(i64 4096, ptr %1) #27
  br label %26

23:                                               ; preds = %18, %7
  %24 = call noundef i32 @_ZL23dt_pthread_mutex_unlockP18dt_pthread_mutex_t(ptr noundef getelementptr inbounds nuw (%struct.darktable_t, ptr @darktable, i32 0, i32 32))
  br label %25

25:                                               ; preds = %23, %0
  ret void

26:                                               ; preds = %19
  %27 = load ptr, ptr %3, align 8
  %28 = load i32, ptr %4, align 4
  %29 = insertvalue { ptr, i32 } poison, ptr %27, 0
  %30 = insertvalue { ptr, i32 } %29, i32 %28, 1
  resume { ptr, i32 } %30
}