; Function Attrs: mustprogress uwtable
define internal fastcc void @_ZL21dt_rawspeed_load_metav() unnamed_addr #1 personality ptr @__gxx_personality_v0 {
  %1 = alloca [4096 x i8], align 16
  %2 = alloca [4096 x i8], align 16
  %3 = load ptr, ptr @_ZL4meta, align 8, !tbaa !6
  %4 = icmp eq ptr %3, null
  br i1 %4, label %5, label %17

5:                                                ; preds = %0
  %6 = tail call noundef i32 @pthread_mutex_lock(ptr noundef nonnull getelementptr inbounds nuw (i8, ptr @darktable, i64 2832)) #23
  %7 = load ptr, ptr @_ZL4meta, align 8, !tbaa !6
  %8 = icmp eq ptr %7, null
  br i1 %8, label %9, label %15

9:                                                ; preds = %5
  call void @llvm.lifetime.start.p0(i64 4096, ptr nonnull %1) #23
  call void @llvm.memset.p0.i64(ptr noundef nonnull align 16 dereferenceable(4096) %1, i8 0, i64 4096, i1 false)
  call void @llvm.lifetime.start.p0(i64 4096, ptr nonnull %2) #23
  call void @llvm.memset.p0.i64(ptr noundef nonnull align 16 dereferenceable(4096) %2, i8 0, i64 4096, i1 false)
  call void @dt_loc_get_datadir(ptr noundef nonnull %1, i64 noundef 4096)
  %10 = call i32 (ptr, i64, ptr, ...) @snprintf(ptr noundef nonnull dereferenceable(1) %2, i64 noundef 4096, ptr noundef nonnull @.str.13, ptr noundef nonnull %1) #23
  %11 = call noalias noundef nonnull dereferenceable(96) ptr @_Znwm(i64 noundef 96) #25
  invoke void @_ZN8rawspeed14CameraMetaDataC1EPKc(ptr noundef nonnull align 8 dereferenceable(96) %11, ptr noundef nonnull %2)
          to label %12 unwind label %13

12:                                               ; preds = %9
  store ptr %11, ptr @_ZL4meta, align 8, !tbaa !6
  call void @llvm.lifetime.end.p0(i64 4096, ptr nonnull %2) #23
  call void @llvm.lifetime.end.p0(i64 4096, ptr nonnull %1) #23
  br label %15

13:                                               ; preds = %9
  %14 = landingpad { ptr, i32 }
          cleanup
  call void @_ZdlPvm(ptr noundef nonnull %11, i64 noundef 96) #26
  call void @llvm.lifetime.end.p0(i64 4096, ptr nonnull %2) #23
  call void @llvm.lifetime.end.p0(i64 4096, ptr nonnull %1) #23
  resume { ptr, i32 } %14

15:                                               ; preds = %12, %5
  %16 = call noundef i32 @pthread_mutex_unlock(ptr noundef nonnull getelementptr inbounds nuw (i8, ptr @darktable, i64 2832)) #23
  br label %17

17:                                               ; preds = %15, %0
  ret void
}